target datalayout = "e-m:e-p270:32:32-p271:32:32-p272:64:64-i64:64-i128:128-f80:128-n8:16:32:64-S128"
target triple = "x86_64-pc-linux-gnu"

%struct._archiveHandle = type { %struct.Archive, i32, ptr, ptr, i64, i64, i32, %struct.sqlparseInfo, i64, i32, ptr, i64, i64, i64, ptr, ptr, ptr, ptr, ptr, ptr, ptr, ptr, ptr, ptr, ptr, ptr, ptr, ptr, ptr, ptr, ptr, ptr, ptr, ptr, ptr, ptr, ptr, ptr, ptr, ptr, ptr, ptr, ptr, ptr, i32, i32, i8, i32, i8, i32, ptr, ptr, ptr, ptr, i32, i32, ptr, ptr, ptr, %struct.pg_compress_specification, i8, i32, i32, ptr, ptr, ptr, ptr, ptr, i32, ptr, i64, i64, i32, i32, i32, i32, ptr, ptr }
%struct.Archive = type { ptr, ptr, i32, ptr, i32, i8, i32, i32, i32, ptr, i32, i8, ptr, ptr, i8, i32, ptr }
%struct.sqlparseInfo = type { i32, i8, ptr }
%struct.pg_compress_specification = type { i32, i32, i32, i32, i8, ptr }
%struct.lclContext = type { ptr, i32, i64 }
%struct._tocEntry = type { ptr, ptr, %struct.CatalogId, i32, i32, i8, ptr, ptr, ptr, ptr, i8, ptr, ptr, ptr, ptr, ptr, ptr, i32, ptr, ptr, ptr, i64, i32, i8, ptr, ptr, i32, ptr, i32, ptr, i32 }
%struct.CatalogId = type { i32, i32 }
%struct.lclTocEntry = type { i32, i64 }

@.str.9 = private unnamed_addr constant [27 x i8] c"error during file seek: %m\00", align 1

; Function Attrs: nounwind uwtable
define internal void @_PrepParallelRestore(ptr noundef %0) #0 {
  %2 = alloca ptr, align 8
  %3 = alloca ptr, align 8
  %4 = alloca ptr, align 8
  %5 = alloca ptr, align 8
  %6 = alloca ptr, align 8
  %7 = alloca ptr, align 8
  %8 = alloca i32, align 4
  %9 = alloca i64, align 8
  store ptr %0, ptr %2, align 8
  call void @llvm.lifetime.start.p0(i64 8, ptr %3) #7
  %10 = load ptr, ptr %2, align 8
  %11 = getelementptr inbounds nuw %struct._archiveHandle, ptr %10, i32 0, i32 63
  %12 = load ptr, ptr %11, align 8
  store ptr %12, ptr %3, align 8
  call void @llvm.lifetime.start.p0(i64 8, ptr %4) #7
  store ptr null, ptr %4, align 8
  call void @llvm.lifetime.start.p0(i64 8, ptr %5) #7
  store ptr null, ptr %5, align 8
  call void @llvm.lifetime.start.p0(i64 8, ptr %6) #7
  %13 = load ptr, ptr %2, align 8
  %14 = getelementptr inbounds nuw %struct._archiveHandle, ptr %13, i32 0, i32 53
  %15 = load ptr, ptr %14, align 8
  %16 = getelementptr inbounds nuw %struct._tocEntry, ptr %15, i32 0, i32 1
  %17 = load ptr, ptr %16, align 8
  store ptr %17, ptr %6, align 8
  br label %18

18:                                               ; preds = %61, %1
  %19 = load ptr, ptr %6, align 8
  %20 = load ptr, ptr %2, align 8
  %21 = getelementptr inbounds nuw %struct._archiveHandle, ptr %20, i32 0, i32 53
  %22 = load ptr, ptr %21, align 8
  %23 = icmp ne ptr %19, %22
  br i1 %23, label %24, label %65

24:                                               ; preds = %18
  call void @llvm.lifetime.start.p0(i64 8, ptr %7) #7
  %25 = load ptr, ptr %6, align 8
  %26 = getelementptr inbounds nuw %struct._tocEntry, ptr %25, i32 0, i32 20
  %27 = load ptr, ptr %26, align 8
  store ptr %27, ptr %7, align 8
  %28 = load ptr, ptr %7, align 8
  %29 = getelementptr inbounds nuw %struct.lclTocEntry, ptr %28, i32 0, i32 0
  %30 = load i32, ptr %29, align 8
  %31 = icmp ne i32 %30, 2
  br i1 %31, label %32, label %33

32:                                               ; preds = %24
  store i32 4, ptr %8, align 4
  br label %58

33:                                               ; preds = %24
  %34 = load ptr, ptr %4, align 8
  %35 = icmp ne ptr %34, null
  br i1 %35, label %36, label %55

36:                                               ; preds = %33
  %37 = load ptr, ptr %7, align 8
  %38 = getelementptr inbounds nuw %struct.lclTocEntry, ptr %37, i32 0, i32 1
  %39 = load i64, ptr %38, align 8
  %40 = load ptr, ptr %5, align 8
  %41 = getelementptr inbounds nuw %struct.lclTocEntry, ptr %40, i32 0, i32 1
  %42 = load i64, ptr %41, align 8
  %43 = icmp sgt i64 %39, %42
  br i1 %43, label %44, label %54

44:                                               ; preds = %36
  %45 = load ptr, ptr %7, align 8
  %46 = getelementptr inbounds nuw %struct.lclTocEntry, ptr %45, i32 0, i32 1
  %47 = load i64, ptr %46, align 8
  %48 = load ptr, ptr %5, align 8
  %49 = getelementptr inbounds nuw %struct.lclTocEntry, ptr %48, i32 0, i32 1
  %50 = load i64, ptr %49, align 8
  %51 = sub i64 %47, %50
  %52 = load ptr, ptr %4, align 8
  %53 = getelementptr inbounds nuw %struct._tocEntry, ptr %52, i32 0, i32 21
  store i64 %51, ptr %53, align 8
  br label %54

54:                                               ; preds = %44, %36
  br label %55

55:                                               ; preds = %54, %33
  %56 = load ptr, ptr %6, align 8
  store ptr %56, ptr %4, align 8
  %57 = load ptr, ptr %7, align 8
  store ptr %57, ptr %5, align 8
  store i32 0, ptr %8, align 4
  br label %58

58:                                               ; preds = %55, %32
  call void @llvm.lifetime.end.p0(i64 8, ptr %7) #7
  %59 = load i32, ptr %8, align 4
  switch i32 %59, label %103 [
    i32 0, label %60
    i32 4, label %61
  ]

60:                                               ; preds = %58
  br label %61

61:                                               ; preds = %60, %58
  %62 = load ptr, ptr %6, align 8
  %63 = getelementptr inbounds nuw %struct._tocEntry, ptr %62, i32 0, i32 1
  %64 = load ptr, ptr %63, align 8
  store ptr %64, ptr %6, align 8
  br label %18, !llvm.loop !6

65:                                               ; preds = %18
  %66 = load ptr, ptr %4, align 8
  %67 = icmp ne ptr %66, null
  br i1 %67, label %68, label %102

68:                                               ; preds = %65
  %69 = load ptr, ptr %3, align 8
  %70 = getelementptr inbounds nuw %struct.lclContext, ptr %69, i32 0, i32 1
  %71 = load i32, ptr %70, align 8
  %72 = icmp ne i32 %71, 0
  br i1 %72, label %73, label %102

73:                                               ; preds = %68
  call void @llvm.lifetime.start.p0(i64 8, ptr %9) #7
  %74 = load ptr, ptr %2, align 8
  %75 = getelementptr inbounds nuw %struct._archiveHandle, ptr %74, i32 0, i32 51
  %76 = load ptr, ptr %75, align 8
  %77 = call i32 @fseeko(ptr noundef %76, i64 noundef 0, i32 noundef 2)
  %78 = icmp ne i32 %77, 0
  br i1 %78, label %79, label %83

79:                                               ; preds = %73
  br label %80

80:                                               ; preds = %79
  call void (i32, i32, ptr, ...) @pg_log_generic(i32 noundef 4, i32 noundef 0, ptr noundef @.str.9)
  call void @exit_nicely(i32 noundef 1) #9
  unreachable

81:                                               ; No predecessors!
  br label %82

82:                                               ; preds = %81
  br label %83

83:                                               ; preds = %82, %73
  %84 = load ptr, ptr %2, align 8
  %85 = getelementptr inbounds nuw %struct._archiveHandle, ptr %84, i32 0, i32 51
  %86 = load ptr, ptr %85, align 8
  %87 = call i64 @ftello(ptr noundef %86)
  store i64 %87, ptr %9, align 8
  %88 = load i64, ptr %9, align 8
  %89 = load ptr, ptr %5, align 8
  %90 = getelementptr inbounds nuw %struct.lclTocEntry, ptr %89, i32 0, i32 1
  %91 = load i64, ptr %90, align 8
  %92 = icmp sgt i64 %88, %91
  br i1 %92, label %93, label %101

93:                                               ; preds = %83
  %94 = load i64, ptr %9, align 8
  %95 = load ptr, ptr %5, align 8
  %96 = getelementptr inbounds nuw %struct.lclTocEntry, ptr %95, i32 0, i32 1
  %97 = load i64, ptr %96, align 8
  %98 = sub i64 %94, %97
  %99 = load ptr, ptr %4, align 8
  %100 = getelementptr inbounds nuw %struct._tocEntry, ptr %99, i32 0, i32 21
  store i64 %98, ptr %100, align 8
  br label %101

101:                                              ; preds = %93, %83
  call void @llvm.lifetime.end.p0(i64 8, ptr %9) #7
  br label %102

102:                                              ; preds = %101, %68, %65
  call void @llvm.lifetime.end.p0(i64 8, ptr %6) #7
  call void @llvm.lifetime.end.p0(i64 8, ptr %5) #7
  call void @llvm.lifetime.end.p0(i64 8, ptr %4) #7
  call void @llvm.lifetime.end.p0(i64 8, ptr %3) #7
  ret void

103:                                              ; preds = %58
  unreachable
}